target datalayout = "e-m:e-p270:32:32-p271:32:32-p272:64:64-i64:64-i128:128-f80:128-n8:16:32:64-S128"
target triple = "x86_64-pc-linux-gnu"

%struct.avifDecoder = type { i32, i32, i32, i32, i32, i32, i32, i32, i32, i32, i32, ptr, i32, i32, i32, %struct.avifImageTiming, i64, double, i64, i32, i32, %struct.avifIOStats, %struct.avifDiagnostics, ptr, ptr, i32 }
%struct.avifImageTiming = type { i64, double, i64, double, i64 }
%struct.avifIOStats = type { i64, i64 }
%struct.avifDiagnostics = type { [256 x i8] }
%struct.avifDecoderData = type { ptr, %struct.avifTrackArray, %struct.avifTileArray, [2 x %struct.avifTileInfo], i32, ptr, ptr, [4 x i8], ptr, ptr, i32 }
%struct.avifTrackArray = type { ptr, i32, i32, i32 }
%struct.avifTileArray = type { ptr, i32, i32, i32 }
%struct.avifTileInfo = type { i32, i32, i32, %struct.avifImageGrid }
%struct.avifImageGrid = type { i32, i32, i32, i32 }
%struct.avifSampleTable = type { %struct.avifSampleTableChunkArray, %struct.avifSampleDescriptionArray, %struct.avifSampleTableSampleToChunkArray, %struct.avifSampleTableSampleSizeArray, %struct.avifSampleTableTimeToSampleArray, %struct.avifSyncSampleArray, i32 }
%struct.avifSampleTableChunkArray = type { ptr, i32, i32, i32 }
%struct.avifSampleDescriptionArray = type { ptr, i32, i32, i32 }
%struct.avifSampleTableSampleToChunkArray = type { ptr, i32, i32, i32 }
%struct.avifSampleTableSampleSizeArray = type { ptr, i32, i32, i32 }
%struct.avifSampleTableTimeToSampleArray = type { ptr, i32, i32, i32 }
%struct.avifSyncSampleArray = type { ptr, i32, i32, i32 }
%struct.avifSampleTableTimeToSample = type { i32, i32 }

; Function Attrs: nounwind uwtable
define internal i32 @avifSampleTableGetImageDelta(ptr noundef %0, i32 noundef %1) #0 {
  %3 = alloca i32, align 4
  %4 = alloca ptr, align 8
  %5 = alloca i32, align 4
  %6 = alloca i32, align 4
  %7 = alloca i32, align 4
  %8 = alloca ptr, align 8
  store ptr %0, ptr %4, align 8
  store i32 %1, ptr %5, align 4
  store i32 0, ptr %6, align 4
  store i32 0, ptr %7, align 4
  br label %9

9:                                                ; preds = %45, %2
  %10 = load i32, ptr %7, align 4
  %11 = load ptr, ptr %4, align 8
  %12 = getelementptr inbounds nuw %struct.avifSampleTable, ptr %11, i32 0, i32 4
  %13 = getelementptr inbounds nuw %struct.avifSampleTableTimeToSampleArray, ptr %12, i32 0, i32 2
  %14 = load i32, ptr %13, align 4
  %15 = icmp ult i32 %10, %14
  br i1 %15, label %16, label %48

16:                                               ; preds = %9
  %17 = load ptr, ptr %4, align 8
  %18 = getelementptr inbounds nuw %struct.avifSampleTable, ptr %17, i32 0, i32 4
  %19 = getelementptr inbounds nuw %struct.avifSampleTableTimeToSampleArray, ptr %18, i32 0, i32 0
  %20 = load ptr, ptr %19, align 8
  %21 = load i32, ptr %7, align 4
  %22 = zext i32 %21 to i64
  %23 = getelementptr inbounds %struct.avifSampleTableTimeToSample, ptr %20, i64 %22
  store ptr %23, ptr %8, align 8
  %24 = load ptr, ptr %8, align 8
  %25 = getelementptr inbounds nuw %struct.avifSampleTableTimeToSample, ptr %24, i32 0, i32 0
  %26 = load i32, ptr %25, align 4
  %27 = load i32, ptr %6, align 4
  %28 = add i32 %27, %26
  store i32 %28, ptr %6, align 4
  %29 = load i32, ptr %5, align 4
  %30 = load i32, ptr %6, align 4
  %31 = icmp slt i32 %29, %30
  br i1 %31, label %40, label %32

32:                                               ; preds = %16
  %33 = load i32, ptr %7, align 4
  %34 = load ptr, ptr %4, align 8
  %35 = getelementptr inbounds nuw %struct.avifSampleTable, ptr %34, i32 0, i32 4
  %36 = getelementptr inbounds nuw %struct.avifSampleTableTimeToSampleArray, ptr %35, i32 0, i32 2
  %37 = load i32, ptr %36, align 4
  %38 = sub i32 %37, 1
  %39 = icmp eq i32 %33, %38
  br i1 %39, label %40, label %44

40:                                               ; preds = %32, %16
  %41 = load ptr, ptr %8, align 8
  %42 = getelementptr inbounds nuw %struct.avifSampleTableTimeToSample, ptr %41, i32 0, i32 1
  %43 = load i32, ptr %42, align 4
  store i32 %43, ptr %3, align 4
  br label %49

44:                                               ; preds = %32
  br label %45

45:                                               ; preds = %44
  %46 = load i32, ptr %7, align 4
  %47 = add i32 %46, 1
  store i32 %47, ptr %7, align 4
  br label %9, !llvm.loop !50

48:                                               ; preds = %9
  store i32 1, ptr %3, align 4
  br label %49

49:                                               ; preds = %48, %40
  %50 = load i32, ptr %3, align 4
  ret i32 %50
}

; Function Attrs: nounwind uwtable
define hidden i32 @avifDecoderNthImageTiming(ptr noundef %0, i32 noundef %1, ptr noundef %2) #0 {
  %4 = alloca i32, align 4
  %5 = alloca ptr, align 8
  %6 = alloca i32, align 4
  %7 = alloca ptr, align 8
  %8 = alloca i32, align 4
  store ptr %0, ptr %5, align 8
  store i32 %1, ptr %6, align 4
  store ptr %2, ptr %7, align 8
  %9 = load ptr, ptr %5, align 8
  %10 = getelementptr inbounds nuw %struct.avifDecoder, ptr %9, i32 0, i32 24
  %11 = load ptr, ptr %10, align 8
  %12 = icmp ne ptr %11, null
  br i1 %12, label %14, label %13

13:                                               ; preds = %3
  store i32 3, ptr %4, align 4
  br label %107

14:                                               ; preds = %3
  %15 = load i32, ptr %6, align 4
  %16 = icmp ugt i32 %15, 2147483647
  br i1 %16, label %23, label %17

17:                                               ; preds = %14
  %18 = load i32, ptr %6, align 4
  %19 = load ptr, ptr %5, align 8
  %20 = getelementptr inbounds nuw %struct.avifDecoder, ptr %19, i32 0, i32 13
  %21 = load i32, ptr %20, align 4
  %22 = icmp sge i32 %18, %21
  br i1 %22, label %23, label %24

23:                                               ; preds = %17, %14
  store i32 16, ptr %4, align 4
  br label %107

24:                                               ; preds = %17
  %25 = load ptr, ptr %5, align 8
  %26 = getelementptr inbounds nuw %struct.avifDecoder, ptr %25, i32 0, i32 24
  %27 = load ptr, ptr %26, align 8
  %28 = getelementptr inbounds nuw %struct.avifDecoderData, ptr %27, i32 0, i32 9
  %29 = load ptr, ptr %28, align 8
  %30 = icmp ne ptr %29, null
  br i1 %30, label %35, label %31

31:                                               ; preds = %24
  %32 = load ptr, ptr %7, align 8
  %33 = load ptr, ptr %5, align 8
  %34 = getelementptr inbounds nuw %struct.avifDecoder, ptr %33, i32 0, i32 15
  call void @llvm.memcpy.p0.p0.i64(ptr align 8 %32, ptr align 8 %34, i64 40, i1 false)
  store i32 0, ptr %4, align 4
  br label %107

35:                                               ; preds = %24
  %36 = load ptr, ptr %5, align 8
  %37 = getelementptr inbounds nuw %struct.avifDecoder, ptr %36, i32 0, i32 16
  %38 = load i64, ptr %37, align 8
  %39 = load ptr, ptr %7, align 8
  %40 = getelementptr inbounds nuw %struct.avifImageTiming, ptr %39, i32 0, i32 0
  store i64 %38, ptr %40, align 8
  %41 = load ptr, ptr %7, align 8
  %42 = getelementptr inbounds nuw %struct.avifImageTiming, ptr %41, i32 0, i32 2
  store i64 0, ptr %42, align 8
  store i32 0, ptr %8, align 4
  br label %43

43:                                               ; preds = %60, %35
  %44 = load i32, ptr %8, align 4
  %45 = load i32, ptr %6, align 4
  %46 = icmp slt i32 %44, %45
  br i1 %46, label %47, label %63

47:                                               ; preds = %43
  %48 = load ptr, ptr %5, align 8
  %49 = getelementptr inbounds nuw %struct.avifDecoder, ptr %48, i32 0, i32 24
  %50 = load ptr, ptr %49, align 8
  %51 = getelementptr inbounds nuw %struct.avifDecoderData, ptr %50, i32 0, i32 9
  %52 = load ptr, ptr %51, align 8
  %53 = load i32, ptr %8, align 4
  %54 = call i32 @avifSampleTableGetImageDelta(ptr noundef %52, i32 noundef %53)
  %55 = zext i32 %54 to i64
  %56 = load ptr, ptr %7, align 8
  %57 = getelementptr inbounds nuw %struct.avifImageTiming, ptr %56, i32 0, i32 2
  %58 = load i64, ptr %57, align 8
  %59 = add i64 %58, %55
  store i64 %59, ptr %57, align 8
  br label %60

60:                                               ; preds = %47
  %61 = load i32, ptr %8, align 4
  %62 = add nsw i32 %61, 1
  store i32 %62, ptr %8, align 4
  br label %43, !llvm.loop !49

63:                                               ; preds = %43
  %64 = load ptr, ptr %5, align 8
  %65 = getelementptr inbounds nuw %struct.avifDecoder, ptr %64, i32 0, i32 24
  %66 = load ptr, ptr %65, align 8
  %67 = getelementptr inbounds nuw %struct.avifDecoderData, ptr %66, i32 0, i32 9
  %68 = load ptr, ptr %67, align 8
  %69 = load i32, ptr %6, align 4
  %70 = call i32 @avifSampleTableGetImageDelta(ptr noundef %68, i32 noundef %69)
  %71 = zext i32 %70 to i64
  %72 = load ptr, ptr %7, align 8
  %73 = getelementptr inbounds nuw %struct.avifImageTiming, ptr %72, i32 0, i32 4
  store i64 %71, ptr %73, align 8
  %74 = load ptr, ptr %7, align 8
  %75 = getelementptr inbounds nuw %struct.avifImageTiming, ptr %74, i32 0, i32 0
  %76 = load i64, ptr %75, align 8
  %77 = icmp ugt i64 %76, 0
  br i1 %77, label %78, label %101

78:                                               ; preds = %63
  %79 = load ptr, ptr %7, align 8
  %80 = getelementptr inbounds nuw %struct.avifImageTiming, ptr %79, i32 0, i32 2
  %81 = load i64, ptr %80, align 8
  %82 = uitofp i64 %81 to double
  %83 = load ptr, ptr %7, align 8
  %84 = getelementptr inbounds nuw %struct.avifImageTiming, ptr %83, i32 0, i32 0
  %85 = load i64, ptr %84, align 8
  %86 = uitofp i64 %85 to double
  %87 = fdiv double %82, %86
  %88 = load ptr, ptr %7, align 8
  %89 = getelementptr inbounds nuw %struct.avifImageTiming, ptr %88, i32 0, i32 1
  store double %87, ptr %89, align 8
  %90 = load ptr, ptr %7, align 8
  %91 = getelementptr inbounds nuw %struct.avifImageTiming, ptr %90, i32 0, i32 4
  %92 = load i64, ptr %91, align 8
  %93 = uitofp i64 %92 to double
  %94 = load ptr, ptr %7, align 8
  %95 = getelementptr inbounds nuw %struct.avifImageTiming, ptr %94, i32 0, i32 0
  %96 = load i64, ptr %95, align 8
  %97 = uitofp i64 %96 to double
  %98 = fdiv double %93, %97
  %99 = load ptr, ptr %7, align 8
  %100 = getelementptr inbounds nuw %struct.avifImageTiming, ptr %99, i32 0, i32 3
  store double %98, ptr %100, align 8
  br label %106

101:                                              ; preds = %63
  %102 = load ptr, ptr %7, align 8
  %103 = getelementptr inbounds nuw %struct.avifImageTiming, ptr %102, i32 0, i32 1
  store double 0.000000e+00, ptr %103, align 8
  %104 = load ptr, ptr %7, align 8
  %105 = getelementptr inbounds nuw %struct.avifImageTiming, ptr %104, i32 0, i32 3
  store double 0.000000e+00, ptr %105, align 8
  br label %106

106:                                              ; preds = %101, %78
  store i32 0, ptr %4, align 4
  br label %107

107:                                              ; preds = %106, %31, %23, %13
  %108 = load i32, ptr %4, align 4
  ret i32 %108
}