; Function Attrs: nofree norecurse nosync nounwind memory(read, argmem: readwrite, inaccessiblemem: none) uwtable
define hidden range(i32 0, 17) i32 @avifDecoderNthImageTiming(ptr noundef readonly captures(none) %0, i32 noundef %1, ptr noundef writeonly captures(none) %2) local_unnamed_addr #7 {
  %4 = getelementptr inbounds nuw i8, ptr %0, i64 424
  %5 = load ptr, ptr %4, align 8
  %.not = icmp eq ptr %5, null
  br i1 %.not, label %76, label %6

6:                                                ; preds = %3
  %7 = icmp slt i32 %1, 0
  br i1 %7, label %76, label %8

8:                                                ; preds = %6
  %9 = getelementptr inbounds nuw i8, ptr %0, i64 60
  %10 = load i32, ptr %9, align 4
  %.not32 = icmp slt i32 %1, %10
  br i1 %.not32, label %11, label %76

11:                                               ; preds = %8
  %12 = getelementptr inbounds nuw i8, ptr %5, i64 152
  %13 = load ptr, ptr %12, align 8
  %.not33 = icmp eq ptr %13, null
  br i1 %.not33, label %14, label %16

14:                                               ; preds = %11
  %15 = getelementptr inbounds nuw i8, ptr %0, i64 72
  tail call void @llvm.memcpy.p0.p0.i64(ptr noundef nonnull align 8 dereferenceable(40) %2, ptr noundef nonnull align 8 dereferenceable(40) %15, i64 40, i1 false)
  br label %76

16:                                               ; preds = %11
  %17 = getelementptr inbounds nuw i8, ptr %0, i64 112
  %18 = load i64, ptr %17, align 8
  store i64 %18, ptr %2, align 8
  %19 = getelementptr inbounds nuw i8, ptr %2, i64 16
  store i64 0, ptr %19, align 8
  %.not48 = icmp eq i32 %1, 0
  br i1 %.not48, label %._crit_edge, label %.lr.ph

.lr.ph:                                           ; preds = %16, %avifSampleTableGetImageDelta.exit
  %20 = phi i64 [ %41, %avifSampleTableGetImageDelta.exit ], [ 0, %16 ]
  %.047 = phi i32 [ %42, %avifSampleTableGetImageDelta.exit ], [ 0, %16 ]
  %21 = load ptr, ptr %4, align 8
  %22 = getelementptr inbounds nuw i8, ptr %21, i64 152
  %23 = load ptr, ptr %22, align 8
  %24 = getelementptr inbounds nuw i8, ptr %23, i64 108
  %25 = load i32, ptr %24, align 4
  %.not.i = icmp eq i32 %25, 0
  br i1 %.not.i, label %avifSampleTableGetImageDelta.exit, label %.lr.ph.i

.lr.ph.i:                                         ; preds = %.lr.ph
  %26 = getelementptr inbounds nuw i8, ptr %23, i64 96
  %27 = load ptr, ptr %26, align 8
  %28 = add i32 %25, -1
  %29 = zext i32 %28 to i64
  %wide.trip.count.i = zext i32 %25 to i64
  br label %31

30:                                               ; preds = %31
  %indvars.iv.next.i = add nuw nsw i64 %indvars.iv.i, 1
  %exitcond.not.i = icmp eq i64 %indvars.iv.next.i, %wide.trip.count.i
  br i1 %exitcond.not.i, label %avifSampleTableGetImageDelta.exit, label %31, !llvm.loop !67

31:                                               ; preds = %30, %.lr.ph.i
  %indvars.iv.i = phi i64 [ 0, %.lr.ph.i ], [ %indvars.iv.next.i, %30 ]
  %.01319.i = phi i32 [ 0, %.lr.ph.i ], [ %34, %30 ]
  %32 = getelementptr inbounds nuw %struct.avifSampleTableTimeToSample, ptr %27, i64 %indvars.iv.i
  %33 = load i32, ptr %32, align 4
  %34 = add i32 %33, %.01319.i
  %35 = icmp slt i32 %.047, %34
  %36 = icmp eq i64 %indvars.iv.i, %29
  %or.cond.i = or i1 %36, %35
  br i1 %or.cond.i, label %37, label %30

37:                                               ; preds = %31
  %38 = getelementptr inbounds nuw %struct.avifSampleTableTimeToSample, ptr %27, i64 %indvars.iv.i, i32 1
  %39 = load i32, ptr %38, align 4
  %40 = zext i32 %39 to i64
  br label %avifSampleTableGetImageDelta.exit

avifSampleTableGetImageDelta.exit:                ; preds = %30, %.lr.ph, %37
  %.0.i = phi i64 [ %40, %37 ], [ 1, %.lr.ph ], [ 1, %30 ]
  %41 = add i64 %20, %.0.i
  store i64 %41, ptr %19, align 8
  %42 = add nuw nsw i32 %.047, 1
  %exitcond.not = icmp eq i32 %42, %1
  br i1 %exitcond.not, label %._crit_edge.loopexit, label %.lr.ph, !llvm.loop !68

._crit_edge.loopexit:                             ; preds = %avifSampleTableGetImageDelta.exit
  %43 = uitofp i64 %41 to double
  br label %._crit_edge

._crit_edge:                                      ; preds = %._crit_edge.loopexit, %16
  %44 = phi double [ %43, %._crit_edge.loopexit ], [ 0.000000e+00, %16 ]
  %45 = load ptr, ptr %4, align 8
  %46 = getelementptr inbounds nuw i8, ptr %45, i64 152
  %47 = load ptr, ptr %46, align 8
  %48 = getelementptr inbounds nuw i8, ptr %47, i64 108
  %49 = load i32, ptr %48, align 4
  %.not.i35 = icmp eq i32 %49, 0
  br i1 %.not.i35, label %avifSampleTableGetImageDelta.exit44, label %.lr.ph.i36

.lr.ph.i36:                                       ; preds = %._crit_edge
  %50 = getelementptr inbounds nuw i8, ptr %47, i64 96
  %51 = load ptr, ptr %50, align 8
  %52 = add i32 %49, -1
  %53 = zext i32 %52 to i64
  %wide.trip.count.i37 = zext i32 %49 to i64
  br label %55

54:                                               ; preds = %55
  %indvars.iv.next.i41 = add nuw nsw i64 %indvars.iv.i38, 1
  %exitcond.not.i42 = icmp eq i64 %indvars.iv.next.i41, %wide.trip.count.i37
  br i1 %exitcond.not.i42, label %avifSampleTableGetImageDelta.exit44, label %55, !llvm.loop !67

55:                                               ; preds = %54, %.lr.ph.i36
  %indvars.iv.i38 = phi i64 [ 0, %.lr.ph.i36 ], [ %indvars.iv.next.i41, %54 ]
  %.01319.i39 = phi i32 [ 0, %.lr.ph.i36 ], [ %58, %54 ]
  %56 = getelementptr inbounds nuw %struct.avifSampleTableTimeToSample, ptr %51, i64 %indvars.iv.i38
  %57 = load i32, ptr %56, align 4
  %58 = add i32 %57, %.01319.i39
  %59 = icmp slt i32 %1, %58
  %60 = icmp eq i64 %indvars.iv.i38, %53
  %or.cond.i40 = or i1 %60, %59
  br i1 %or.cond.i40, label %61, label %54

61:                                               ; preds = %55
  %62 = getelementptr inbounds nuw %struct.avifSampleTableTimeToSample, ptr %51, i64 %indvars.iv.i38, i32 1
  %63 = load i32, ptr %62, align 4
  %64 = zext i32 %63 to i64
  br label %avifSampleTableGetImageDelta.exit44

avifSampleTableGetImageDelta.exit44:              ; preds = %54, %._crit_edge, %61
  %.0.i43 = phi i64 [ %64, %61 ], [ 1, %._crit_edge ], [ 1, %54 ]
  %65 = getelementptr inbounds nuw i8, ptr %2, i64 32
  store i64 %.0.i43, ptr %65, align 8
  %.not34 = icmp eq i64 %18, 0
  br i1 %.not34, label %73, label %66

66:                                               ; preds = %avifSampleTableGetImageDelta.exit44
  %67 = uitofp i64 %18 to double
  %68 = fdiv double %44, %67
  %69 = getelementptr inbounds nuw i8, ptr %2, i64 8
  store double %68, ptr %69, align 8
  %70 = uitofp nneg i64 %.0.i43 to double
  %71 = fdiv double %70, %67
  %72 = getelementptr inbounds nuw i8, ptr %2, i64 24
  store double %71, ptr %72, align 8
  br label %76

73:                                               ; preds = %avifSampleTableGetImageDelta.exit44
  %74 = getelementptr inbounds nuw i8, ptr %2, i64 8
  store double 0.000000e+00, ptr %74, align 8
  %75 = getelementptr inbounds nuw i8, ptr %2, i64 24
  store double 0.000000e+00, ptr %75, align 8
  br label %76

76:                                               ; preds = %66, %73, %6, %8, %3, %14
  %.028 = phi i32 [ 0, %14 ], [ 3, %3 ], [ 16, %8 ], [ 16, %6 ], [ 0, %73 ], [ 0, %66 ]
  ret i32 %.028
}